; Function Attrs: nounwind uwtable
define noalias ptr @png_calloc(ptr noalias noundef %0, i64 noundef %1) local_unnamed_addr #0 {
  %3 = icmp eq ptr %0, null
  br i1 %3, label %png_malloc.exit.thread, label %4

4:                                                ; preds = %2
  %5 = getelementptr inbounds nuw i8, ptr %0, i64 1064
  %6 = load ptr, ptr %5, align 8, !tbaa !37, !alias.scope !38
  %.not9.i.i = icmp eq ptr %6, null
  br i1 %.not9.i.i, label %9, label %7

7:                                                ; preds = %4
  %8 = tail call ptr %6(ptr noundef nonnull %0, i64 noundef %1) #12
  br label %png_malloc_base.exit.i

9:                                                ; preds = %4
  %10 = tail call noalias ptr @malloc(i64 noundef %1) #13
  br label %png_malloc_base.exit.i

png_malloc_base.exit.i:                           ; preds = %9, %7
  %.0.i.i = phi ptr [ %8, %7 ], [ %10, %9 ]
  %11 = icmp eq ptr %.0.i.i, null
  br i1 %11, label %12, label %png_malloc.exit

12:                                               ; preds = %png_malloc_base.exit.i
  tail call void @png_error(ptr noundef nonnull %0, ptr noundef nonnull @.str.2) #14
  unreachable

png_malloc.exit:                                  ; preds = %png_malloc_base.exit.i
  tail call void @llvm.memset.p0.i64(ptr nonnull align 1 %.0.i.i, i8 0, i64 %1, i1 false)
  br label %png_malloc.exit.thread

png_malloc.exit.thread:                           ; preds = %2, %png_malloc.exit
  %.0.i7 = phi ptr [ %.0.i.i, %png_malloc.exit ], [ null, %2 ]
  ret ptr %.0.i7
}